; Function Attrs: mustprogress nounwind uwtable
define void @_ZN6icu_7718UStringEnumerationD2Ev(ptr noundef nonnull align 8 dereferenceable(128) initializes((0, 8)) %0) unnamed_addr #2 align 2 personality ptr @__gxx_personality_v0 {
  store ptr getelementptr inbounds nuw inrange(-16, 88) (i8, ptr @_ZTVN6icu_7718UStringEnumerationE, i64 16), ptr %0, align 8, !tbaa !3
  %2 = getelementptr inbounds nuw i8, ptr %0, i64 120
  %3 = load ptr, ptr %2, align 8, !tbaa !24
  invoke void @uenum_close_77(ptr noundef %3)
          to label %4 unwind label %13

4:                                                ; preds = %1
  store ptr getelementptr inbounds nuw inrange(-16, 88) (i8, ptr @_ZTVN6icu_7717StringEnumerationE, i64 16), ptr %0, align 8, !tbaa !3
  %5 = getelementptr inbounds nuw i8, ptr %0, i64 104
  %6 = load ptr, ptr %5, align 8, !tbaa !8
  %.not.i = icmp eq ptr %6, null
  %7 = getelementptr inbounds nuw i8, ptr %0, i64 72
  %.not1.i = icmp eq ptr %6, %7
  %or.cond.i = select i1 %.not.i, i1 true, i1 %.not1.i
  br i1 %or.cond.i, label %_ZN6icu_7717StringEnumerationD2Ev.exit, label %8

8:                                                ; preds = %4
  invoke void @uprv_free_77(ptr noundef nonnull %6)
          to label %_ZN6icu_7717StringEnumerationD2Ev.exit unwind label %9

9:                                                ; preds = %8
  %10 = landingpad { ptr, i32 }
          catch ptr null
  %11 = extractvalue { ptr, i32 } %10, 0
  tail call void @__clang_call_terminate(ptr %11) #19
  unreachable

_ZN6icu_7717StringEnumerationD2Ev.exit:           ; preds = %4, %8
  %12 = getelementptr inbounds nuw i8, ptr %0, i64 8
  tail call void @_ZN6icu_7713UnicodeStringD1Ev(ptr noundef nonnull align 8 dereferenceable(64) %12) #18
  tail call void @_ZN6icu_777UObjectD2Ev(ptr noundef nonnull align 8 dereferenceable(116) %0) #18
  ret void

13:                                               ; preds = %1
  %14 = landingpad { ptr, i32 }
          catch ptr null
  %15 = extractvalue { ptr, i32 } %14, 0
  tail call void @__clang_call_terminate(ptr %15) #19
  unreachable
}